; ModuleID = '52/3355.c'
source_filename = "52/3355.c"
target datalayout = "e-m:e-p270:32:32-p271:32:32-p272:64:64-i64:64-f80:128-n8:16:32:64-S128"
target triple = "x86_64-pc-linux-gnu"

@.str = private unnamed_addr constant [6 x i8] c"%d %d\00", align 1
@.str.1 = private unnamed_addr constant [3 x i8] c"%d\00", align 1
@.str.2 = private unnamed_addr constant [4 x i8] c" %d\00", align 1
@.str.3 = private unnamed_addr constant [4 x i8] c"%d \00", align 1
@.str.4 = private unnamed_addr constant [4 x i8] c"%d\0A\00", align 1

; Function Attrs: noinline nounwind uwtable
define dso_local i32 @main() #0 {
  %1 = alloca i32, align 4
  %2 = alloca i32, align 4
  %3 = alloca i32, align 4
  %4 = alloca i32, align 4
  %5 = alloca [100 x i32], align 16
  %6 = alloca i32*, align 8
  store i32 0, i32* %1, align 4
  %7 = call i32 (i8*, ...) @__isoc99_scanf(i8* getelementptr inbounds ([6 x i8], [6 x i8]* @.str, i64 0, i64 0), i32* %2, i32* %3)
  %8 = getelementptr inbounds [100 x i32], [100 x i32]* %5, i64 0, i64 0
  store i32* %8, i32** %6, align 8
  %9 = getelementptr inbounds [100 x i32], [100 x i32]* %5, i64 0, i64 0
  %10 = call i32 (i8*, ...) @__isoc99_scanf(i8* getelementptr inbounds ([3 x i8], [3 x i8]* @.str.1, i64 0, i64 0), i32* %9)
  store i32 1, i32* %4, align 4
  br label %11

11:                                               ; preds = %20, %0
  %12 = load i32, i32* %4, align 4
  %13 = load i32, i32* %2, align 4
  %14 = icmp slt i32 %12, %13
  br i1 %14, label %15, label %23

15:                                               ; preds = %11
  %16 = load i32, i32* %4, align 4
  %17 = sext i32 %16 to i64
  %18 = getelementptr inbounds [100 x i32], [100 x i32]* %5, i64 0, i64 %17
  %19 = call i32 (i8*, ...) @__isoc99_scanf(i8* getelementptr inbounds ([4 x i8], [4 x i8]* @.str.2, i64 0, i64 0), i32* %18)
  br label %20

20:                                               ; preds = %15
  %21 = load i32, i32* %4, align 4
  %22 = add nsw i32 %21, 1
  store i32 %22, i32* %4, align 4
  br label %11

23:                                               ; preds = %11
  %24 = load i32*, i32** %6, align 8
  %25 = load i32, i32* %2, align 4
  %26 = load i32, i32* %3, align 4
  call void @move(i32* %24, i32 %25, i32 %26)
  ret i32 0
}

declare dso_local i32 @__isoc99_scanf(i8*, ...) #1

; Function Attrs: noinline nounwind uwtable
define dso_local void @move(i32* %0, i32 %1, i32 %2) #0 {
  %4 = alloca i32*, align 8
  %5 = alloca i32, align 4
  %6 = alloca i32, align 4
  %7 = alloca i32*, align 8
  %8 = alloca i32, align 4
  %9 = alloca i32, align 4
  store i32* %0, i32** %4, align 8
  store i32 %1, i32* %5, align 4
  store i32 %2, i32* %6, align 4
  %10 = load i32, i32* %5, align 4
  %11 = sext i32 %10 to i64
  %12 = mul i64 %11, 4
  %13 = call noalias i8* @malloc(i64 %12) #3
  %14 = bitcast i8* %13 to i32*
  store i32* %14, i32** %7, align 8
  store i32 0, i32* %9, align 4
  store i32 0, i32* %8, align 4
  br label %15

15:                                               ; preds = %33, %3
  %16 = load i32, i32* %8, align 4
  %17 = load i32, i32* %6, align 4
  %18 = icmp slt i32 %16, %17
  br i1 %18, label %19, label %36

19:                                               ; preds = %15
  %20 = load i32*, i32** %4, align 8
  %21 = load i32, i32* %8, align 4
  %22 = load i32, i32* %5, align 4
  %23 = add nsw i32 %21, %22
  %24 = load i32, i32* %6, align 4
  %25 = sub nsw i32 %23, %24
  %26 = sext i32 %25 to i64
  %27 = getelementptr inbounds i32, i32* %20, i64 %26
  %28 = load i32, i32* %27, align 4
  %29 = load i32*, i32** %7, align 8
  %30 = load i32, i32* %8, align 4
  %31 = sext i32 %30 to i64
  %32 = getelementptr inbounds i32, i32* %29, i64 %31
  store i32 %28, i32* %32, align 4
  br label %33

33:                                               ; preds = %19
  %34 = load i32, i32* %8, align 4
  %35 = add nsw i32 %34, 1
  store i32 %35, i32* %8, align 4
  br label %15

36:                                               ; preds = %15
  %37 = load i32, i32* %6, align 4
  store i32 %37, i32* %8, align 4
  br label %38

38:                                               ; preds = %52, %36
  %39 = load i32, i32* %8, align 4
  %40 = load i32, i32* %5, align 4
  %41 = icmp slt i32 %39, %40
  br i1 %41, label %42, label %57

42:                                               ; preds = %38
  %43 = load i32*, i32** %4, align 8
  %44 = load i32, i32* %9, align 4
  %45 = sext i32 %44 to i64
  %46 = getelementptr inbounds i32, i32* %43, i64 %45
  %47 = load i32, i32* %46, align 4
  %48 = load i32*, i32** %7, align 8
  %49 = load i32, i32* %8, align 4
  %50 = sext i32 %49 to i64
  %51 = getelementptr inbounds i32, i32* %48, i64 %50
  store i32 %47, i32* %51, align 4
  br label %52

52:                                               ; preds = %42
  %53 = load i32, i32* %8, align 4
  %54 = add nsw i32 %53, 1
  store i32 %54, i32* %8, align 4
  %55 = load i32, i32* %9, align 4
  %56 = add nsw i32 %55, 1
  store i32 %56, i32* %9, align 4
  br label %38

57:                                               ; preds = %38
  store i32 0, i32* %8, align 4
  br label %58

58:                                               ; preds = %70, %57
  %59 = load i32, i32* %8, align 4
  %60 = load i32, i32* %5, align 4
  %61 = sub nsw i32 %60, 1
  %62 = icmp slt i32 %59, %61
  br i1 %62, label %63, label %73

63:                                               ; preds = %58
  %64 = load i32*, i32** %7, align 8
  %65 = load i32, i32* %8, align 4
  %66 = sext i32 %65 to i64
  %67 = getelementptr inbounds i32, i32* %64, i64 %66
  %68 = load i32, i32* %67, align 4
  %69 = call i32 (i8*, ...) @printf(i8* getelementptr inbounds ([4 x i8], [4 x i8]* @.str.3, i64 0, i64 0), i32 %68)
  br label %70

70:                                               ; preds = %63
  %71 = load i32, i32* %8, align 4
  %72 = add nsw i32 %71, 1
  store i32 %72, i32* %8, align 4
  br label %58

73:                                               ; preds = %58
  %74 = load i32*, i32** %7, align 8
  %75 = load i32, i32* %5, align 4
  %76 = sub nsw i32 %75, 1
  %77 = sext i32 %76 to i64
  %78 = getelementptr inbounds i32, i32* %74, i64 %77
  %79 = load i32, i32* %78, align 4
  %80 = call i32 (i8*, ...) @printf(i8* getelementptr inbounds ([4 x i8], [4 x i8]* @.str.4, i64 0, i64 0), i32 %79)
  %81 = load i32*, i32** %7, align 8
  %82 = bitcast i32* %81 to i8*
  call void @free(i8* %82) #3
  ret void
}

; Function Attrs: nounwind
declare dso_local noalias i8* @malloc(i64) #2

declare dso_local i32 @printf(i8*, ...) #1

; Function Attrs: nounwind
declare dso_local void @free(i8*) #2


!llvm.module.flags = !{!0}
!llvm.ident = !{!1}

!0 = !{i32 1, !"wchar_size", i32 4}
!1 = !{!"clang version 10.0.0-4ubuntu1 "}
